target datalayout = "e-m:e-p270:32:32-p271:32:32-p272:64:64-i64:64-i128:128-f80:128-n8:16:32:64-S128"
target triple = "x86_64-pc-linux-gnu"

%class.ShenandoahRegionPartitions = type { i64, i64, ptr, [2 x %class.ShenandoahSimpleBitMap], [2 x i64], [2 x i64], [2 x i64], [2 x i64], [2 x i64], [2 x i64], [2 x i64] }
%class.ShenandoahSimpleBitMap = type { i64, i64, ptr }

@_ZN20ShenandoahHeapRegion15RegionSizeBytesE = external global i64, align 8

; Function Attrs: mustprogress nounwind uwtable
define linkonce_odr hidden void @_ZN22ShenandoahSimpleBitMap9clear_allEv(ptr noundef nonnull align 8 dereferenceable(24) %0) #1 comdat align 2 {
  %2 = alloca ptr, align 8
  %3 = alloca i64, align 8
  store ptr %0, ptr %2, align 8
  %4 = load ptr, ptr %2, align 8
  store i64 0, ptr %3, align 8
  br label %5

5:                                                ; preds = %15, %1
  %6 = load i64, ptr %3, align 8
  %7 = getelementptr inbounds %class.ShenandoahSimpleBitMap, ptr %4, i32 0, i32 1
  %8 = load i64, ptr %7, align 8
  %9 = icmp ult i64 %6, %8
  br i1 %9, label %10, label %18

10:                                               ; preds = %5
  %11 = getelementptr inbounds %class.ShenandoahSimpleBitMap, ptr %4, i32 0, i32 2
  %12 = load ptr, ptr %11, align 8
  %13 = load i64, ptr %3, align 8
  %14 = getelementptr inbounds i64, ptr %12, i64 %13
  store i64 0, ptr %14, align 8
  br label %15

15:                                               ; preds = %10
  %16 = load i64, ptr %3, align 8
  %17 = add i64 %16, 1
  store i64 %17, ptr %3, align 8
  br label %5, !llvm.loop !8

18:                                               ; preds = %5
  ret void
}

; Function Attrs: mustprogress nounwind uwtable
define hidden void @_ZN26ShenandoahRegionPartitions28make_all_regions_unavailableEv(ptr noundef nonnull align 8 dereferenceable(184) %0) #1 align 2 {
  %2 = alloca ptr, align 8
  %3 = alloca i64, align 8
  store ptr %0, ptr %2, align 8
  %4 = load ptr, ptr %2, align 8
  store i64 0, ptr %3, align 8
  br label %5

5:                                                ; preds = %34, %1
  %6 = load i64, ptr %3, align 8
  %7 = icmp ult i64 %6, 2
  br i1 %7, label %8, label %37

8:                                                ; preds = %5
  %9 = getelementptr inbounds %class.ShenandoahRegionPartitions, ptr %4, i32 0, i32 3
  %10 = load i64, ptr %3, align 8
  %11 = getelementptr inbounds [2 x %class.ShenandoahSimpleBitMap], ptr %9, i64 0, i64 %10
  call void @_ZN22ShenandoahSimpleBitMap9clear_allEv(ptr noundef nonnull align 8 dereferenceable(24) %11)
  %12 = getelementptr inbounds %class.ShenandoahRegionPartitions, ptr %4, i32 0, i32 0
  %13 = load i64, ptr %12, align 8
  %14 = getelementptr inbounds %class.ShenandoahRegionPartitions, ptr %4, i32 0, i32 4
  %15 = load i64, ptr %3, align 8
  %16 = getelementptr inbounds [2 x i64], ptr %14, i64 0, i64 %15
  store i64 %13, ptr %16, align 8
  %17 = getelementptr inbounds %class.ShenandoahRegionPartitions, ptr %4, i32 0, i32 5
  %18 = load i64, ptr %3, align 8
  %19 = getelementptr inbounds [2 x i64], ptr %17, i64 0, i64 %18
  store i64 -1, ptr %19, align 8
  %20 = getelementptr inbounds %class.ShenandoahRegionPartitions, ptr %4, i32 0, i32 0
  %21 = load i64, ptr %20, align 8
  %22 = getelementptr inbounds %class.ShenandoahRegionPartitions, ptr %4, i32 0, i32 6
  %23 = load i64, ptr %3, align 8
  %24 = getelementptr inbounds [2 x i64], ptr %22, i64 0, i64 %23
  store i64 %21, ptr %24, align 8
  %25 = getelementptr inbounds %class.ShenandoahRegionPartitions, ptr %4, i32 0, i32 7
  %26 = load i64, ptr %3, align 8
  %27 = getelementptr inbounds [2 x i64], ptr %25, i64 0, i64 %26
  store i64 -1, ptr %27, align 8
  %28 = getelementptr inbounds %class.ShenandoahRegionPartitions, ptr %4, i32 0, i32 8
  %29 = load i64, ptr %3, align 8
  %30 = getelementptr inbounds [2 x i64], ptr %28, i64 0, i64 %29
  store i64 0, ptr %30, align 8
  %31 = getelementptr inbounds %class.ShenandoahRegionPartitions, ptr %4, i32 0, i32 9
  %32 = load i64, ptr %3, align 8
  %33 = getelementptr inbounds [2 x i64], ptr %31, i64 0, i64 %32
  store i64 0, ptr %33, align 8
  br label %34

34:                                               ; preds = %8
  %35 = load i64, ptr %3, align 8
  %36 = add i64 %35, 1
  store i64 %36, ptr %3, align 8
  br label %5, !llvm.loop !6

37:                                               ; preds = %5
  %38 = getelementptr inbounds %class.ShenandoahRegionPartitions, ptr %4, i32 0, i32 10
  %39 = getelementptr inbounds [2 x i64], ptr %38, i64 0, i64 1
  store i64 0, ptr %39, align 8
  %40 = getelementptr inbounds %class.ShenandoahRegionPartitions, ptr %4, i32 0, i32 10
  %41 = getelementptr inbounds [2 x i64], ptr %40, i64 0, i64 0
  store i64 0, ptr %41, align 8
  ret void
}

; Function Attrs: mustprogress nounwind uwtable
define linkonce_odr hidden noundef i64 @_ZN20ShenandoahHeapRegion17region_size_bytesEv() #1 comdat align 2 {
  %1 = load i64, ptr @_ZN20ShenandoahHeapRegion15RegionSizeBytesE, align 8
  ret i64 %1
}

; Function Attrs: mustprogress nounwind uwtable
define hidden void @_ZN26ShenandoahRegionPartitionsC2EmP17ShenandoahFreeSet(ptr noundef nonnull align 8 dereferenceable(184) %0, i64 noundef %1, ptr noundef %2) unnamed_addr #1 align 2 {
  %4 = alloca ptr, align 8
  %5 = alloca i64, align 8
  %6 = alloca ptr, align 8
  store ptr %0, ptr %4, align 8
  store i64 %1, ptr %5, align 8
  store ptr %2, ptr %6, align 8
  %7 = load ptr, ptr %4, align 8
  %8 = getelementptr inbounds %class.ShenandoahRegionPartitions, ptr %7, i32 0, i32 0
  %9 = load i64, ptr %5, align 8
  store i64 %9, ptr %8, align 8
  %10 = getelementptr inbounds %class.ShenandoahRegionPartitions, ptr %7, i32 0, i32 1
  %11 = call noundef i64 @_ZN20ShenandoahHeapRegion17region_size_bytesEv()
  store i64 %11, ptr %10, align 8
  %12 = getelementptr inbounds %class.ShenandoahRegionPartitions, ptr %7, i32 0, i32 2
  %13 = load ptr, ptr %6, align 8
  store ptr %13, ptr %12, align 8
  %14 = getelementptr inbounds %class.ShenandoahRegionPartitions, ptr %7, i32 0, i32 3
  %15 = load i64, ptr %5, align 8
  call void @_ZN22ShenandoahSimpleBitMapC1Em(ptr noundef nonnull align 8 dereferenceable(24) %14, i64 noundef %15)
  %16 = getelementptr inbounds %class.ShenandoahSimpleBitMap, ptr %14, i64 1
  %17 = load i64, ptr %5, align 8
  call void @_ZN22ShenandoahSimpleBitMapC1Em(ptr noundef nonnull align 8 dereferenceable(24) %16, i64 noundef %17)
  call void @_ZN26ShenandoahRegionPartitions28make_all_regions_unavailableEv(ptr noundef nonnull align 8 dereferenceable(184) %7)
  ret void
}