; Function Attrs: mustprogress nounwind uwtable
define hidden void @_ZN26ShenandoahRegionPartitionsC2EmP17ShenandoahFreeSet(ptr noundef nonnull align 8 dereferenceable(184) %0, i64 noundef %1, ptr noundef %2) unnamed_addr #0 align 2 {
  store i64 %1, ptr %0, align 8
  %4 = getelementptr inbounds i8, ptr %0, i64 8
  %5 = load i64, ptr @_ZN20ShenandoahHeapRegion15RegionSizeBytesE, align 8
  store i64 %5, ptr %4, align 8
  %6 = getelementptr inbounds i8, ptr %0, i64 16
  store ptr %2, ptr %6, align 8
  %7 = getelementptr inbounds i8, ptr %0, i64 24
  tail call void @_ZN22ShenandoahSimpleBitMapC1Em(ptr noundef nonnull align 8 dereferenceable(24) %7, i64 noundef %1) #18
  %8 = getelementptr inbounds i8, ptr %0, i64 48
  tail call void @_ZN22ShenandoahSimpleBitMapC1Em(ptr noundef nonnull align 8 dereferenceable(24) %8, i64 noundef %1) #18
  %9 = getelementptr inbounds i8, ptr %0, i64 72
  %10 = getelementptr inbounds i8, ptr %0, i64 88
  %11 = getelementptr inbounds i8, ptr %0, i64 104
  %12 = getelementptr inbounds i8, ptr %0, i64 120
  %13 = getelementptr inbounds i8, ptr %0, i64 136
  %14 = getelementptr inbounds i8, ptr %0, i64 152
  br label %15

15:                                               ; preds = %_ZN22ShenandoahSimpleBitMap9clear_allEv.exit.i, %3
  %16 = phi i1 [ true, %3 ], [ false, %_ZN22ShenandoahSimpleBitMap9clear_allEv.exit.i ]
  %.09.i = phi i64 [ 0, %3 ], [ 1, %_ZN22ShenandoahSimpleBitMap9clear_allEv.exit.i ]
  %17 = getelementptr inbounds [2 x %class.ShenandoahSimpleBitMap], ptr %7, i64 0, i64 %.09.i
  %18 = getelementptr inbounds i8, ptr %17, i64 8
  %19 = load i64, ptr %18, align 8
  %.not.i.i = icmp eq i64 %19, 0
  br i1 %.not.i.i, label %_ZN22ShenandoahSimpleBitMap9clear_allEv.exit.i, label %.lr.ph.i.i

.lr.ph.i.i:                                       ; preds = %15
  %20 = getelementptr inbounds i8, ptr %17, i64 16
  br label %21

21:                                               ; preds = %21, %.lr.ph.i.i
  %.03.i.i = phi i64 [ 0, %.lr.ph.i.i ], [ %24, %21 ]
  %22 = load ptr, ptr %20, align 8
  %23 = getelementptr inbounds i64, ptr %22, i64 %.03.i.i
  store i64 0, ptr %23, align 8
  %24 = add nuw i64 %.03.i.i, 1
  %25 = load i64, ptr %18, align 8
  %26 = icmp ult i64 %24, %25
  br i1 %26, label %21, label %_ZN22ShenandoahSimpleBitMap9clear_allEv.exit.i, !llvm.loop !6

_ZN22ShenandoahSimpleBitMap9clear_allEv.exit.i:   ; preds = %21, %15
  %27 = load i64, ptr %0, align 8
  %28 = getelementptr inbounds [2 x i64], ptr %9, i64 0, i64 %.09.i
  store i64 %27, ptr %28, align 8
  %29 = getelementptr inbounds [2 x i64], ptr %10, i64 0, i64 %.09.i
  store i64 -1, ptr %29, align 8
  %30 = getelementptr inbounds [2 x i64], ptr %11, i64 0, i64 %.09.i
  store i64 %27, ptr %30, align 8
  %31 = getelementptr inbounds [2 x i64], ptr %12, i64 0, i64 %.09.i
  store i64 -1, ptr %31, align 8
  %32 = getelementptr inbounds [2 x i64], ptr %13, i64 0, i64 %.09.i
  store i64 0, ptr %32, align 8
  %33 = getelementptr inbounds [2 x i64], ptr %14, i64 0, i64 %.09.i
  store i64 0, ptr %33, align 8
  br i1 %16, label %15, label %_ZN26ShenandoahRegionPartitions28make_all_regions_unavailableEv.exit, !llvm.loop !8

_ZN26ShenandoahRegionPartitions28make_all_regions_unavailableEv.exit: ; preds = %_ZN22ShenandoahSimpleBitMap9clear_allEv.exit.i
  %34 = getelementptr inbounds i8, ptr %0, i64 168
  tail call void @llvm.memset.p0.i64(ptr noundef nonnull align 8 dereferenceable(16) %34, i8 0, i64 16, i1 false)
  ret void
}